target datalayout = "e-m:e-p270:32:32-p271:32:32-p272:64:64-i64:64-i128:128-f80:128-n8:16:32:64-S128"
target triple = "x86_64-pc-linux-gnu"

%struct.recent_settings_tag = type { i32, i32, i32, i32, i32, i32, i32, i32, i32, i32, i32, i32, i32, i32, i32, i32, i32, i32, i32, i32, i32, i32, i32, i32, i32, i32, i32, i32, i32, i32, i32, i32, i32, i32, i32, i32, ptr, ptr, ptr, i32, i32, ptr, ptr, ptr, ptr, ptr, ptr, i32, ptr, ptr, ptr }

@recent = external global %struct.recent_settings_tag, align 8

; Function Attrs: mustprogress uwtable
define void @_ZN11SearchFrame39on_searchInComboBox_currentIndexChangedEi(ptr noundef nonnull align 8 dereferenceable(104) %0, i32 noundef %1) #0 align 2 {
  %3 = alloca ptr, align 8
  %4 = alloca i32, align 4
  store ptr %0, ptr %3, align 8
  store i32 %1, ptr %4, align 4
  %5 = load ptr, ptr %3, align 8
  %6 = load i32, ptr %4, align 4
  switch i32 %6, label %10 [
    i32 0, label %7
    i32 1, label %8
    i32 2, label %9
  ]

7:                                                ; preds = %2
  store i32 0, ptr getelementptr inbounds (%struct.recent_settings_tag, ptr @recent, i32 0, i32 18), align 8
  br label %11

8:                                                ; preds = %2
  store i32 1, ptr getelementptr inbounds (%struct.recent_settings_tag, ptr @recent, i32 0, i32 18), align 8
  br label %11

9:                                                ; preds = %2
  store i32 2, ptr getelementptr inbounds (%struct.recent_settings_tag, ptr @recent, i32 0, i32 18), align 8
  br label %11

10:                                               ; preds = %2
  br label %11

11:                                               ; preds = %10, %9, %8, %7
  call void @_ZN11SearchFrame13updateWidgetsEv(ptr noundef nonnull align 8 dereferenceable(104) %5)
  ret void
}