; Function Attrs: mustprogress uwtable
define void @_ZN11SearchFrame39on_searchInComboBox_currentIndexChangedEi(ptr noundef nonnull align 8 dereferenceable(104) %0, i32 noundef %1) local_unnamed_addr #0 align 2 {
  %switch = icmp ult i32 %1, 3
  br i1 %switch, label %.sink.split, label %3

.sink.split:                                      ; preds = %2
  store i32 %1, ptr getelementptr inbounds (%struct.recent_settings_tag, ptr @recent, i64 0, i32 18), align 8
  br label %3

3:                                                ; preds = %2, %.sink.split
  tail call void @_ZN11SearchFrame13updateWidgetsEv(ptr noundef nonnull align 8 dereferenceable(104) %0)
  ret void
}